target datalayout = "e-m:e-p270:32:32-p271:32:32-p272:64:64-i64:64-i128:128-f80:128-n8:16:32:64-S128"
target triple = "x86_64-pc-linux-gnu"

%"class.o3dgc::Arithmetic_Codec" = type <{ ptr, ptr, ptr, i32, i32, i32, i32, i32, [4 x i8] }>

; Function Attrs: inlinehint mustprogress nounwind uwtable
define linkonce_odr hidden void @_ZN5o3dgc16Arithmetic_Codec19renorm_enc_intervalEv(ptr noundef nonnull align 8 dereferenceable(44) %0) #2 comdat align 2 {
  %2 = alloca ptr, align 8
  store ptr %0, ptr %2, align 8
  %3 = load ptr, ptr %2, align 8
  br label %4

4:                                                ; preds = %15, %1
  %5 = getelementptr inbounds nuw %"class.o3dgc::Arithmetic_Codec", ptr %3, i32 0, i32 3
  %6 = load i32, ptr %5, align 8
  %7 = lshr i32 %6, 24
  %8 = trunc i32 %7 to i8
  %9 = getelementptr inbounds nuw %"class.o3dgc::Arithmetic_Codec", ptr %3, i32 0, i32 2
  %10 = load ptr, ptr %9, align 8
  %11 = getelementptr inbounds nuw i8, ptr %10, i32 1
  store ptr %11, ptr %9, align 8
  store i8 %8, ptr %10, align 1
  %12 = getelementptr inbounds nuw %"class.o3dgc::Arithmetic_Codec", ptr %3, i32 0, i32 3
  %13 = load i32, ptr %12, align 8
  %14 = shl i32 %13, 8
  store i32 %14, ptr %12, align 8
  br label %15

15:                                               ; preds = %4
  %16 = getelementptr inbounds nuw %"class.o3dgc::Arithmetic_Codec", ptr %3, i32 0, i32 5
  %17 = load i32, ptr %16, align 8
  %18 = shl i32 %17, 8
  store i32 %18, ptr %16, align 8
  %19 = icmp ult i32 %18, 16777216
  br i1 %19, label %4, label %20, !llvm.loop !5

20:                                               ; preds = %15
  ret void
}

; Function Attrs: inlinehint mustprogress nounwind uwtable
define linkonce_odr hidden void @_ZN5o3dgc16Arithmetic_Codec15propagate_carryEv(ptr noundef nonnull align 8 dereferenceable(44) %0) #2 comdat align 2 {
  %2 = alloca ptr, align 8
  %3 = alloca ptr, align 8
  store ptr %0, ptr %2, align 8
  %4 = load ptr, ptr %2, align 8
  call void @llvm.lifetime.start.p0(i64 8, ptr %3) #12
  %5 = getelementptr inbounds nuw %"class.o3dgc::Arithmetic_Codec", ptr %4, i32 0, i32 2
  %6 = load ptr, ptr %5, align 8
  %7 = getelementptr inbounds i8, ptr %6, i64 -1
  store ptr %7, ptr %3, align 8
  br label %8

8:                                                ; preds = %15, %1
  %9 = load ptr, ptr %3, align 8
  %10 = load i8, ptr %9, align 1
  %11 = zext i8 %10 to i32
  %12 = icmp eq i32 %11, 255
  br i1 %12, label %13, label %18

13:                                               ; preds = %8
  %14 = load ptr, ptr %3, align 8
  store i8 0, ptr %14, align 1
  br label %15

15:                                               ; preds = %13
  %16 = load ptr, ptr %3, align 8
  %17 = getelementptr inbounds i8, ptr %16, i32 -1
  store ptr %17, ptr %3, align 8
  br label %8, !llvm.loop !3

18:                                               ; preds = %8
  %19 = load ptr, ptr %3, align 8
  %20 = load i8, ptr %19, align 1
  %21 = add i8 %20, 1
  store i8 %21, ptr %19, align 1
  call void @llvm.lifetime.end.p0(i64 8, ptr %3) #12
  ret void
}

; Function Attrs: mustprogress uwtable
define hidden void @_ZN5o3dgc16Arithmetic_Codec7put_bitEj(ptr noundef nonnull align 8 dereferenceable(44) %0, i32 noundef %1) #0 align 2 {
  %3 = alloca ptr, align 8
  %4 = alloca i32, align 4
  %5 = alloca i32, align 4
  store ptr %0, ptr %3, align 8
  store i32 %1, ptr %4, align 4
  %6 = load ptr, ptr %3, align 8
  %7 = getelementptr inbounds nuw %"class.o3dgc::Arithmetic_Codec", ptr %6, i32 0, i32 5
  %8 = load i32, ptr %7, align 8
  %9 = lshr i32 %8, 1
  store i32 %9, ptr %7, align 8
  %10 = load i32, ptr %4, align 4
  %11 = icmp ne i32 %10, 0
  br i1 %11, label %12, label %26

12:                                               ; preds = %2
  call void @llvm.lifetime.start.p0(i64 4, ptr %5) #12
  %13 = getelementptr inbounds nuw %"class.o3dgc::Arithmetic_Codec", ptr %6, i32 0, i32 3
  %14 = load i32, ptr %13, align 8
  store i32 %14, ptr %5, align 4
  %15 = getelementptr inbounds nuw %"class.o3dgc::Arithmetic_Codec", ptr %6, i32 0, i32 5
  %16 = load i32, ptr %15, align 8
  %17 = getelementptr inbounds nuw %"class.o3dgc::Arithmetic_Codec", ptr %6, i32 0, i32 3
  %18 = load i32, ptr %17, align 8
  %19 = add i32 %18, %16
  store i32 %19, ptr %17, align 8
  %20 = load i32, ptr %5, align 4
  %21 = getelementptr inbounds nuw %"class.o3dgc::Arithmetic_Codec", ptr %6, i32 0, i32 3
  %22 = load i32, ptr %21, align 8
  %23 = icmp ugt i32 %20, %22
  br i1 %23, label %24, label %25

24:                                               ; preds = %12
  call void @_ZN5o3dgc16Arithmetic_Codec15propagate_carryEv(ptr noundef nonnull align 8 dereferenceable(44) %6)
  br label %25

25:                                               ; preds = %24, %12
  call void @llvm.lifetime.end.p0(i64 4, ptr %5) #12
  br label %26

26:                                               ; preds = %25, %2
  %27 = getelementptr inbounds nuw %"class.o3dgc::Arithmetic_Codec", ptr %6, i32 0, i32 5
  %28 = load i32, ptr %27, align 8
  %29 = icmp ult i32 %28, 16777216
  br i1 %29, label %30, label %31

30:                                               ; preds = %26
  call void @_ZN5o3dgc16Arithmetic_Codec19renorm_enc_intervalEv(ptr noundef nonnull align 8 dereferenceable(44) %6)
  br label %31

31:                                               ; preds = %30, %26
  ret void
}