; Function Attrs: mustprogress nofree norecurse nosync nounwind memory(readwrite, inaccessiblemem: none) uwtable
define hidden void @_ZN5o3dgc16Arithmetic_Codec7put_bitEj(ptr noundef nonnull align 8 captures(none) dereferenceable(44) %0, i32 noundef %1) local_unnamed_addr #0 align 2 {
  %3 = getelementptr inbounds nuw i8, ptr %0, i64 32
  %4 = load i32, ptr %3, align 8
  %5 = lshr i32 %4, 1
  store i32 %5, ptr %3, align 8
  %.not = icmp eq i32 %1, 0
  br i1 %.not, label %thread-pre-split, label %6

6:                                                ; preds = %2
  %7 = getelementptr inbounds nuw i8, ptr %0, i64 24
  %8 = load i32, ptr %7, align 8
  %9 = add i32 %8, %5
  store i32 %9, ptr %7, align 8
  %10 = icmp ugt i32 %8, %9
  br i1 %10, label %11, label %thread-pre-split

11:                                               ; preds = %6
  %12 = getelementptr inbounds nuw i8, ptr %0, i64 16
  %13 = load ptr, ptr %12, align 8
  %.05.i = getelementptr inbounds i8, ptr %13, i64 -1
  %14 = load i8, ptr %.05.i, align 1
  %15 = icmp eq i8 %14, -1
  br i1 %15, label %.lr.ph.i, label %_ZN5o3dgc16Arithmetic_Codec15propagate_carryEv.exit

.lr.ph.i:                                         ; preds = %11, %.lr.ph.i
  %.06.i = phi ptr [ %.0.i, %.lr.ph.i ], [ %.05.i, %11 ]
  store i8 0, ptr %.06.i, align 1
  %.0.i = getelementptr inbounds i8, ptr %.06.i, i64 -1
  %16 = load i8, ptr %.0.i, align 1
  %17 = icmp eq i8 %16, -1
  br i1 %17, label %.lr.ph.i, label %_ZN5o3dgc16Arithmetic_Codec15propagate_carryEv.exit, !llvm.loop !3

_ZN5o3dgc16Arithmetic_Codec15propagate_carryEv.exit: ; preds = %.lr.ph.i, %11
  %.0.lcssa.i = phi ptr [ %.05.i, %11 ], [ %.0.i, %.lr.ph.i ]
  %.lcssa.i = phi i8 [ %14, %11 ], [ %16, %.lr.ph.i ]
  %18 = add nuw i8 %.lcssa.i, 1
  store i8 %18, ptr %.0.lcssa.i, align 1
  %.pr.pre = load i32, ptr %3, align 8
  br label %thread-pre-split

thread-pre-split:                                 ; preds = %6, %_ZN5o3dgc16Arithmetic_Codec15propagate_carryEv.exit, %2
  %19 = phi i32 [ %5, %2 ], [ %.pr.pre, %_ZN5o3dgc16Arithmetic_Codec15propagate_carryEv.exit ], [ %5, %6 ]
  %20 = icmp ult i32 %19, 16777216
  br i1 %20, label %21, label %_ZN5o3dgc16Arithmetic_Codec19renorm_enc_intervalEv.exit

21:                                               ; preds = %thread-pre-split
  %22 = getelementptr inbounds nuw i8, ptr %0, i64 24
  %23 = getelementptr inbounds nuw i8, ptr %0, i64 16
  %.pre.i = load i32, ptr %22, align 8
  br label %24

24:                                               ; preds = %24, %21
  %25 = phi i32 [ %31, %24 ], [ %.pre.i, %21 ]
  %26 = lshr i32 %25, 24
  %27 = trunc nuw i32 %26 to i8
  %28 = load ptr, ptr %23, align 8
  %29 = getelementptr inbounds nuw i8, ptr %28, i64 1
  store ptr %29, ptr %23, align 8
  store i8 %27, ptr %28, align 1
  %30 = load i32, ptr %22, align 8
  %31 = shl i32 %30, 8
  store i32 %31, ptr %22, align 8
  %32 = load i32, ptr %3, align 8
  %33 = shl i32 %32, 8
  store i32 %33, ptr %3, align 8
  %34 = icmp ult i32 %33, 16777216
  br i1 %34, label %24, label %_ZN5o3dgc16Arithmetic_Codec19renorm_enc_intervalEv.exit, !llvm.loop !5

_ZN5o3dgc16Arithmetic_Codec19renorm_enc_intervalEv.exit: ; preds = %24, %thread-pre-split
  ret void
}